target datalayout = "e-m:e-p270:32:32-p271:32:32-p272:64:64-i64:64-i128:128-f80:128-n8:16:32:64-S128"
target triple = "x86_64-pc-linux-gnu"

%struct.H5FL_reg_head_t = type { i8, i32, i32, ptr, i64, ptr }
%struct.H5G_t = type { ptr, %struct.H5O_loc_t, %struct.H5G_name_t }
%struct.H5O_loc_t = type { ptr, i64, i8 }
%struct.H5G_name_t = type { ptr, ptr, i32 }

@H5_H5G_t_reg_free_list = external global %struct.H5FL_reg_head_t, align 8
@H5_H5G_shared_t_reg_free_list = external global %struct.H5FL_reg_head_t, align 8

; Function Attrs: nounwind uwtable
define i32 @H5G_root_free(ptr noundef %0) #0 {
  %2 = alloca ptr, align 8
  store ptr %0, ptr %2, align 8
  %3 = load ptr, ptr %2, align 8
  %4 = getelementptr inbounds %struct.H5G_t, ptr %3, i32 0, i32 2
  %5 = call i32 @H5G_name_free(ptr noundef %4)
  %6 = load ptr, ptr %2, align 8
  %7 = getelementptr inbounds %struct.H5G_t, ptr %6, i32 0, i32 0
  %8 = load ptr, ptr %7, align 8
  %9 = call ptr @H5FL_reg_free(ptr noundef @H5_H5G_shared_t_reg_free_list, ptr noundef %8)
  %10 = load ptr, ptr %2, align 8
  %11 = getelementptr inbounds %struct.H5G_t, ptr %10, i32 0, i32 0
  store ptr %9, ptr %11, align 8
  %12 = load ptr, ptr %2, align 8
  %13 = call ptr @H5FL_reg_free(ptr noundef @H5_H5G_t_reg_free_list, ptr noundef %12)
  store ptr %13, ptr %2, align 8
  ret i32 0
}