; Function Attrs: nounwind uwtable
define noundef i32 @H5G_root_free(ptr noundef %0) local_unnamed_addr #1 {
  %2 = getelementptr inbounds i8, ptr %0, i64 32
  %3 = tail call i32 @H5G_name_free(ptr noundef nonnull %2) #5
  %4 = load ptr, ptr %0, align 8
  %5 = tail call ptr @H5FL_reg_free(ptr noundef nonnull @H5_H5G_shared_t_reg_free_list, ptr noundef %4) #5
  store ptr %5, ptr %0, align 8
  %6 = tail call ptr @H5FL_reg_free(ptr noundef nonnull @H5_H5G_t_reg_free_list, ptr noundef nonnull %0) #5
  ret i32 0
}